target datalayout = "e-m:e-p270:32:32-p271:32:32-p272:64:64-i64:64-i128:128-f80:128-n8:16:32:64-S128"
target triple = "x86_64-pc-linux-gnu"

@.str.116 = private unnamed_addr constant [6 x i8] c"NJ200\00", align 1

; Function Attrs: null_pointer_is_valid sspstrong uwtable
define internal zeroext i1 @test_njack(ptr noundef %0) #0 {
  %2 = alloca i1, align 1
  %3 = alloca ptr, align 8
  store ptr %0, ptr %3, align 8
  %4 = load ptr, ptr %3, align 8
  %5 = call i32 @tvb_captured_length(ptr noundef %4)
  %6 = icmp ult i32 %5, 6
  br i1 %6, label %11, label %7

7:                                                ; preds = %1
  %8 = load ptr, ptr %3, align 8
  %9 = call i32 @tvb_strncaseeql(ptr noundef %8, i32 noundef 0, ptr noundef @.str.116, i64 noundef 5)
  %10 = icmp ne i32 %9, 0
  br i1 %10, label %11, label %12

11:                                               ; preds = %7, %1
  store i1 false, ptr %2, align 1
  br label %13

12:                                               ; preds = %7
  store i1 true, ptr %2, align 1
  br label %13

13:                                               ; preds = %12, %11
  %14 = load i1, ptr %2, align 1
  ret i1 %14
}

; Function Attrs: null_pointer_is_valid sspstrong uwtable
define internal i32 @dissect_njack_static(ptr noundef %0, ptr noundef %1, ptr noundef %2, ptr noundef %3) #0 {
  %5 = alloca i32, align 4
  %6 = alloca ptr, align 8
  %7 = alloca ptr, align 8
  %8 = alloca ptr, align 8
  %9 = alloca ptr, align 8
  store ptr %0, ptr %6, align 8
  store ptr %1, ptr %7, align 8
  store ptr %2, ptr %8, align 8
  store ptr %3, ptr %9, align 8
  %10 = load ptr, ptr %6, align 8
  %11 = call zeroext i1 @test_njack(ptr noundef %10)
  br i1 %11, label %13, label %12

12:                                               ; preds = %4
  store i32 0, ptr %5, align 4
  br label %18

13:                                               ; preds = %4
  %14 = load ptr, ptr %6, align 8
  %15 = load ptr, ptr %7, align 8
  %16 = load ptr, ptr %8, align 8
  %17 = call i32 @dissect_njack(ptr noundef %14, ptr noundef %15, ptr noundef %16, ptr noundef null)
  store i32 %17, ptr %5, align 4
  br label %18

18:                                               ; preds = %13, %12
  %19 = load i32, ptr %5, align 4
  ret i32 %19
}